target datalayout = "e-m:e-p270:32:32-p271:32:32-p272:64:64-i64:64-i128:128-f80:128-n8:16:32:64-S128"
target triple = "x86_64-pc-linux-gnu"

%struct.MvcCubeStruct = type { ptr, i32, i32, [1 x i32] }

; Function Attrs: nounwind uwtable
define i32 @Mvc_CubeCompareSizeAndInt(ptr noundef %0, ptr noundef %1, ptr noundef %2) #0 {
  %4 = alloca i32, align 4
  %5 = alloca ptr, align 8
  %6 = alloca ptr, align 8
  %7 = alloca ptr, align 8
  %8 = alloca i32, align 4
  %9 = alloca i32, align 4
  store ptr %0, ptr %5, align 8, !tbaa !3
  store ptr %1, ptr %6, align 8, !tbaa !3
  store ptr %2, ptr %7, align 8, !tbaa !3
  %10 = load ptr, ptr %5, align 8, !tbaa !3
  %11 = getelementptr inbounds nuw %struct.MvcCubeStruct, ptr %10, i32 0, i32 2
  %12 = load i32, ptr %11, align 4, !tbaa !12
  %13 = load ptr, ptr %6, align 8, !tbaa !3
  %14 = getelementptr inbounds nuw %struct.MvcCubeStruct, ptr %13, i32 0, i32 2
  %15 = load i32, ptr %14, align 4, !tbaa !12
  %16 = icmp ult i32 %12, %15
  br i1 %16, label %17, label %18

17:                                               ; preds = %3
  store i32 1, ptr %4, align 4
  br label %151

18:                                               ; preds = %3
  %19 = load ptr, ptr %5, align 8, !tbaa !3
  %20 = getelementptr inbounds nuw %struct.MvcCubeStruct, ptr %19, i32 0, i32 2
  %21 = load i32, ptr %20, align 4, !tbaa !12
  %22 = load ptr, ptr %6, align 8, !tbaa !3
  %23 = getelementptr inbounds nuw %struct.MvcCubeStruct, ptr %22, i32 0, i32 2
  %24 = load i32, ptr %23, align 4, !tbaa !12
  %25 = icmp ugt i32 %21, %24
  br i1 %25, label %26, label %27

26:                                               ; preds = %18
  store i32 -1, ptr %4, align 4
  br label %151

27:                                               ; preds = %18
  %28 = load ptr, ptr %5, align 8, !tbaa !3
  %29 = getelementptr inbounds nuw %struct.MvcCubeStruct, ptr %28, i32 0, i32 1
  %30 = load i32, ptr %29, align 8
  %31 = and i32 %30, 16777215
  %32 = icmp eq i32 %31, 0
  br i1 %32, label %33, label %56

33:                                               ; preds = %27
  %34 = load ptr, ptr %5, align 8, !tbaa !3
  %35 = getelementptr inbounds nuw %struct.MvcCubeStruct, ptr %34, i32 0, i32 3
  %36 = getelementptr inbounds [1 x i32], ptr %35, i64 0, i64 0
  %37 = load i32, ptr %36, align 8, !tbaa !8
  %38 = load ptr, ptr %6, align 8, !tbaa !3
  %39 = getelementptr inbounds nuw %struct.MvcCubeStruct, ptr %38, i32 0, i32 3
  %40 = getelementptr inbounds [1 x i32], ptr %39, i64 0, i64 0
  %41 = load i32, ptr %40, align 8, !tbaa !8
  %42 = icmp ult i32 %37, %41
  br i1 %42, label %43, label %44

43:                                               ; preds = %33
  store i32 -1, ptr %4, align 4
  br label %151

44:                                               ; preds = %33
  %45 = load ptr, ptr %5, align 8, !tbaa !3
  %46 = getelementptr inbounds nuw %struct.MvcCubeStruct, ptr %45, i32 0, i32 3
  %47 = getelementptr inbounds [1 x i32], ptr %46, i64 0, i64 0
  %48 = load i32, ptr %47, align 8, !tbaa !8
  %49 = load ptr, ptr %6, align 8, !tbaa !3
  %50 = getelementptr inbounds nuw %struct.MvcCubeStruct, ptr %49, i32 0, i32 3
  %51 = getelementptr inbounds [1 x i32], ptr %50, i64 0, i64 0
  %52 = load i32, ptr %51, align 8, !tbaa !8
  %53 = icmp ugt i32 %48, %52
  br i1 %53, label %54, label %55

54:                                               ; preds = %44
  store i32 1, ptr %4, align 4
  br label %151

55:                                               ; preds = %44
  store i32 0, ptr %4, align 4
  br label %151

56:                                               ; preds = %27
  %57 = load ptr, ptr %5, align 8, !tbaa !3
  %58 = getelementptr inbounds nuw %struct.MvcCubeStruct, ptr %57, i32 0, i32 1
  %59 = load i32, ptr %58, align 8
  %60 = and i32 %59, 16777215
  %61 = icmp eq i32 %60, 1
  br i1 %61, label %62, label %107

62:                                               ; preds = %56
  %63 = load ptr, ptr %5, align 8, !tbaa !3
  %64 = getelementptr inbounds nuw %struct.MvcCubeStruct, ptr %63, i32 0, i32 3
  %65 = getelementptr inbounds [1 x i32], ptr %64, i64 0, i64 1
  %66 = load i32, ptr %65, align 4, !tbaa !8
  %67 = load ptr, ptr %6, align 8, !tbaa !3
  %68 = getelementptr inbounds nuw %struct.MvcCubeStruct, ptr %67, i32 0, i32 3
  %69 = getelementptr inbounds [1 x i32], ptr %68, i64 0, i64 1
  %70 = load i32, ptr %69, align 4, !tbaa !8
  %71 = icmp ult i32 %66, %70
  br i1 %71, label %72, label %73

72:                                               ; preds = %62
  store i32 -1, ptr %4, align 4
  br label %151

73:                                               ; preds = %62
  %74 = load ptr, ptr %5, align 8, !tbaa !3
  %75 = getelementptr inbounds nuw %struct.MvcCubeStruct, ptr %74, i32 0, i32 3
  %76 = getelementptr inbounds [1 x i32], ptr %75, i64 0, i64 1
  %77 = load i32, ptr %76, align 4, !tbaa !8
  %78 = load ptr, ptr %6, align 8, !tbaa !3
  %79 = getelementptr inbounds nuw %struct.MvcCubeStruct, ptr %78, i32 0, i32 3
  %80 = getelementptr inbounds [1 x i32], ptr %79, i64 0, i64 1
  %81 = load i32, ptr %80, align 4, !tbaa !8
  %82 = icmp ugt i32 %77, %81
  br i1 %82, label %83, label %84

83:                                               ; preds = %73
  store i32 1, ptr %4, align 4
  br label %151

84:                                               ; preds = %73
  %85 = load ptr, ptr %5, align 8, !tbaa !3
  %86 = getelementptr inbounds nuw %struct.MvcCubeStruct, ptr %85, i32 0, i32 3
  %87 = getelementptr inbounds [1 x i32], ptr %86, i64 0, i64 0
  %88 = load i32, ptr %87, align 8, !tbaa !8
  %89 = load ptr, ptr %6, align 8, !tbaa !3
  %90 = getelementptr inbounds nuw %struct.MvcCubeStruct, ptr %89, i32 0, i32 3
  %91 = getelementptr inbounds [1 x i32], ptr %90, i64 0, i64 0
  %92 = load i32, ptr %91, align 8, !tbaa !8
  %93 = icmp ult i32 %88, %92
  br i1 %93, label %94, label %95

94:                                               ; preds = %84
  store i32 -1, ptr %4, align 4
  br label %151

95:                                               ; preds = %84
  %96 = load ptr, ptr %5, align 8, !tbaa !3
  %97 = getelementptr inbounds nuw %struct.MvcCubeStruct, ptr %96, i32 0, i32 3
  %98 = getelementptr inbounds [1 x i32], ptr %97, i64 0, i64 0
  %99 = load i32, ptr %98, align 8, !tbaa !8
  %100 = load ptr, ptr %6, align 8, !tbaa !3
  %101 = getelementptr inbounds nuw %struct.MvcCubeStruct, ptr %100, i32 0, i32 3
  %102 = getelementptr inbounds [1 x i32], ptr %101, i64 0, i64 0
  %103 = load i32, ptr %102, align 8, !tbaa !8
  %104 = icmp ugt i32 %99, %103
  br i1 %104, label %105, label %106

105:                                              ; preds = %95
  store i32 1, ptr %4, align 4
  br label %151

106:                                              ; preds = %95
  store i32 0, ptr %4, align 4
  br label %151

107:                                              ; preds = %56
  call void @llvm.lifetime.start.p0(i64 4, ptr %8) #2
  %108 = load ptr, ptr %5, align 8, !tbaa !3
  %109 = getelementptr inbounds nuw %struct.MvcCubeStruct, ptr %108, i32 0, i32 1
  %110 = load i32, ptr %109, align 8
  %111 = and i32 %110, 16777215
  store i32 %111, ptr %8, align 4, !tbaa !8
  br label %112

112:                                              ; preds = %146, %107
  %113 = load i32, ptr %8, align 4, !tbaa !8
  %114 = icmp sge i32 %113, 0
  br i1 %114, label %115, label %149

115:                                              ; preds = %112
  %116 = load ptr, ptr %5, align 8, !tbaa !3
  %117 = getelementptr inbounds nuw %struct.MvcCubeStruct, ptr %116, i32 0, i32 3
  %118 = load i32, ptr %8, align 4, !tbaa !8
  %119 = sext i32 %118 to i64
  %120 = getelementptr inbounds [1 x i32], ptr %117, i64 0, i64 %119
  %121 = load i32, ptr %120, align 4, !tbaa !8
  %122 = load ptr, ptr %6, align 8, !tbaa !3
  %123 = getelementptr inbounds nuw %struct.MvcCubeStruct, ptr %122, i32 0, i32 3
  %124 = load i32, ptr %8, align 4, !tbaa !8
  %125 = sext i32 %124 to i64
  %126 = getelementptr inbounds [1 x i32], ptr %123, i64 0, i64 %125
  %127 = load i32, ptr %126, align 4, !tbaa !8
  %128 = icmp ult i32 %121, %127
  br i1 %128, label %129, label %130

129:                                              ; preds = %115
  store i32 -1, ptr %4, align 4
  store i32 1, ptr %9, align 4
  br label %150

130:                                              ; preds = %115
  %131 = load ptr, ptr %5, align 8, !tbaa !3
  %132 = getelementptr inbounds nuw %struct.MvcCubeStruct, ptr %131, i32 0, i32 3
  %133 = load i32, ptr %8, align 4, !tbaa !8
  %134 = sext i32 %133 to i64
  %135 = getelementptr inbounds [1 x i32], ptr %132, i64 0, i64 %134
  %136 = load i32, ptr %135, align 4, !tbaa !8
  %137 = load ptr, ptr %6, align 8, !tbaa !3
  %138 = getelementptr inbounds nuw %struct.MvcCubeStruct, ptr %137, i32 0, i32 3
  %139 = load i32, ptr %8, align 4, !tbaa !8
  %140 = sext i32 %139 to i64
  %141 = getelementptr inbounds [1 x i32], ptr %138, i64 0, i64 %140
  %142 = load i32, ptr %141, align 4, !tbaa !8
  %143 = icmp ugt i32 %136, %142
  br i1 %143, label %144, label %145

144:                                              ; preds = %130
  store i32 1, ptr %4, align 4
  store i32 1, ptr %9, align 4
  br label %150

145:                                              ; preds = %130
  br label %146

146:                                              ; preds = %145
  %147 = load i32, ptr %8, align 4, !tbaa !8
  %148 = add nsw i32 %147, -1
  store i32 %148, ptr %8, align 4, !tbaa !8
  br label %112, !llvm.loop !14

149:                                              ; preds = %112
  store i32 0, ptr %4, align 4
  store i32 1, ptr %9, align 4
  br label %150

150:                                              ; preds = %149, %144, %129
  call void @llvm.lifetime.end.p0(i64 4, ptr %8) #2
  br label %151

151:                                              ; preds = %150, %106, %105, %94, %83, %72, %55, %54, %43, %26, %17
  %152 = load i32, ptr %4, align 4
  ret i32 %152
}