; Function Attrs: nofree norecurse nosync nounwind memory(argmem: read) uwtable
define range(i32 -1, 2) i32 @Mvc_CubeCompareSizeAndInt(ptr noundef readonly captures(none) %0, ptr noundef readonly captures(none) %1, ptr noundef readnone captures(none) %2) local_unnamed_addr #0 {
  %4 = getelementptr inbounds nuw i8, ptr %0, i64 12
  %5 = load i32, ptr %4, align 4, !tbaa !9
  %6 = getelementptr inbounds nuw i8, ptr %1, i64 12
  %7 = load i32, ptr %6, align 4, !tbaa !9
  %8 = icmp ult i32 %5, %7
  br i1 %8, label %.loopexit, label %9

9:                                                ; preds = %3
  %10 = icmp ugt i32 %5, %7
  br i1 %10, label %.loopexit, label %11

11:                                               ; preds = %9
  %12 = getelementptr inbounds nuw i8, ptr %0, i64 8
  %13 = load i32, ptr %12, align 8
  %14 = and i32 %13, 16777215
  %15 = getelementptr inbounds nuw i8, ptr %0, i64 16
  switch i32 %14, label %.preheader [
    i32 0, label %17
    i32 1, label %24
  ]

.preheader:                                       ; preds = %11
  %16 = getelementptr inbounds nuw i8, ptr %1, i64 16
  br label %42

17:                                               ; preds = %11
  %18 = load i32, ptr %15, align 8, !tbaa !3
  %19 = getelementptr inbounds nuw i8, ptr %1, i64 16
  %20 = load i32, ptr %19, align 8, !tbaa !3
  %21 = icmp ult i32 %18, %20
  br i1 %21, label %.loopexit, label %22

22:                                               ; preds = %17
  %23 = icmp ugt i32 %18, %20
  %. = zext i1 %23 to i32
  br label %.loopexit

24:                                               ; preds = %11
  %25 = getelementptr inbounds nuw i8, ptr %0, i64 20
  %26 = load i32, ptr %25, align 4, !tbaa !3
  %27 = getelementptr inbounds nuw i8, ptr %1, i64 16
  %28 = getelementptr inbounds nuw i8, ptr %1, i64 20
  %29 = load i32, ptr %28, align 4, !tbaa !3
  %30 = icmp ult i32 %26, %29
  br i1 %30, label %.loopexit, label %31

31:                                               ; preds = %24
  %32 = icmp ugt i32 %26, %29
  br i1 %32, label %.loopexit, label %33

33:                                               ; preds = %31
  %34 = load i32, ptr %15, align 8, !tbaa !3
  %35 = load i32, ptr %27, align 8, !tbaa !3
  %36 = icmp ult i32 %34, %35
  br i1 %36, label %.loopexit, label %37

37:                                               ; preds = %33
  %38 = icmp ugt i32 %34, %35
  %.41 = zext i1 %38 to i32
  br label %.loopexit

39:                                               ; preds = %49
  %40 = add nsw i32 %.042, -1
  %41 = icmp sgt i32 %.042, 0
  br i1 %41, label %42, label %.loopexit, !llvm.loop !13

42:                                               ; preds = %.preheader, %39
  %.042 = phi i32 [ %14, %.preheader ], [ %40, %39 ]
  %43 = zext nneg i32 %.042 to i64
  %44 = getelementptr inbounds nuw [1 x i32], ptr %15, i64 0, i64 %43
  %45 = load i32, ptr %44, align 4, !tbaa !3
  %46 = getelementptr inbounds nuw [1 x i32], ptr %16, i64 0, i64 %43
  %47 = load i32, ptr %46, align 4, !tbaa !3
  %48 = icmp ult i32 %45, %47
  br i1 %48, label %.loopexit, label %49

49:                                               ; preds = %42
  %50 = icmp ugt i32 %45, %47
  br i1 %50, label %.loopexit, label %39

.loopexit:                                        ; preds = %42, %49, %39, %37, %33, %31, %24, %22, %17, %9, %3
  %.029 = phi i32 [ 1, %3 ], [ -1, %9 ], [ -1, %17 ], [ %., %22 ], [ -1, %24 ], [ 1, %31 ], [ -1, %33 ], [ %.41, %37 ], [ 0, %39 ], [ 1, %49 ], [ -1, %42 ]
  ret i32 %.029
}